target datalayout = "e-m:e-p270:32:32-p271:32:32-p272:64:64-i64:64-i128:128-f80:128-n8:16:32:64-S128"
target triple = "x86_64-pc-linux-gnu"

%"class.ncnn::Mat" = type { ptr, ptr, i64, i32, ptr, i32, i32, i32, i32, i32, i64 }

; Function Attrs: mustprogress uwtable
define hidden void @ncnn_mat_fill_float(ptr noundef %0, float noundef nofpclass(nan inf) %1) #1 {
  %3 = alloca ptr, align 8
  %4 = alloca ptr, align 8
  %5 = alloca float, align 4
  %6 = alloca i32, align 4
  %7 = alloca ptr, align 8
  %8 = alloca i32, align 4
  %9 = alloca ptr, align 8
  %10 = alloca float, align 4
  store ptr %0, ptr %9, align 8
  store float %1, ptr %10, align 4
  %11 = load ptr, ptr %9, align 8
  %12 = load float, ptr %10, align 4
  store ptr %11, ptr %4, align 8
  store float %12, ptr %5, align 4
  %13 = load ptr, ptr %4, align 8
  store ptr %13, ptr %3, align 8
  %14 = load ptr, ptr %3, align 8
  %15 = getelementptr inbounds nuw %"class.ncnn::Mat", ptr %14, i32 0, i32 10
  %16 = load i64, ptr %15, align 8
  %17 = getelementptr inbounds nuw %"class.ncnn::Mat", ptr %14, i32 0, i32 9
  %18 = load i32, ptr %17, align 8
  %19 = sext i32 %18 to i64
  %20 = mul i64 %16, %19
  %21 = trunc i64 %20 to i32
  store i32 %21, ptr %6, align 4
  %22 = load ptr, ptr %13, align 8
  store ptr %22, ptr %7, align 8
  store i32 0, ptr %8, align 4
  br label %23

23:                                               ; preds = %27, %2
  %24 = load i32, ptr %8, align 4
  %25 = load i32, ptr %6, align 4
  %26 = icmp slt i32 %24, %25
  br i1 %26, label %27, label %33

27:                                               ; preds = %23
  %28 = load float, ptr %5, align 4
  %29 = load ptr, ptr %7, align 8
  %30 = getelementptr inbounds float, ptr %29, i32 1
  store ptr %30, ptr %7, align 8
  store float %28, ptr %29, align 4
  %31 = load i32, ptr %8, align 4
  %32 = add nsw i32 %31, 1
  store i32 %32, ptr %8, align 4
  br label %23, !llvm.loop !4

33:                                               ; preds = %23
  ret void
}