; Function Attrs: mustprogress nofree norecurse nosync nounwind memory(write, argmem: readwrite, inaccessiblemem: none) uwtable
define hidden void @ncnn_mat_fill_float(ptr nocapture noundef readonly %0, float noundef nofpclass(nan inf) %1) local_unnamed_addr #11 {
  %3 = getelementptr inbounds nuw i8, ptr %0, i64 64
  %4 = load i64, ptr %3, align 8
  %5 = getelementptr inbounds nuw i8, ptr %0, i64 56
  %6 = load i32, ptr %5, align 8
  %7 = trunc i64 %4 to i32
  %8 = mul i32 %6, %7
  %9 = icmp sgt i32 %8, 0
  br i1 %9, label %.lr.ph.preheader, label %._crit_edge

.lr.ph.preheader:                                 ; preds = %2
  %10 = load ptr, ptr %0, align 8
  br label %.lr.ph

.lr.ph:                                           ; preds = %.lr.ph.preheader, %.lr.ph
  %.010 = phi ptr [ %11, %.lr.ph ], [ %10, %.lr.ph.preheader ]
  %.089 = phi i32 [ %12, %.lr.ph ], [ 0, %.lr.ph.preheader ]
  %11 = getelementptr inbounds i8, ptr %.010, i64 4
  store float %1, ptr %.010, align 4
  %12 = add nuw nsw i32 %.089, 1
  %exitcond.not = icmp eq i32 %12, %8
  br i1 %exitcond.not, label %._crit_edge, label %.lr.ph, !llvm.loop !4

._crit_edge:                                      ; preds = %.lr.ph, %2
  ret void
}